target datalayout = "e-m:e-p270:32:32-p271:32:32-p272:64:64-i64:64-i128:128-f80:128-n8:16:32:64-S128"
target triple = "x86_64-pc-linux-gnu"

@.str.4 = private unnamed_addr constant [5 x i8] c"%s%s\00", align 1
@.str.5 = private unnamed_addr constant [6 x i8] c"%s/%s\00", align 1

; Function Attrs: nounwind uwtable
define dso_local i32 @add_file_name_to_url(ptr noundef %0, ptr noundef %1, ptr noundef %2) #0 {
  %4 = alloca i32, align 4
  %5 = alloca ptr, align 8
  %6 = alloca ptr, align 8
  %7 = alloca ptr, align 8
  %8 = alloca i32, align 4
  %9 = alloca i32, align 4
  %10 = alloca ptr, align 8
  %11 = alloca ptr, align 8
  %12 = alloca ptr, align 8
  %13 = alloca ptr, align 8
  %14 = alloca i32, align 4
  %15 = alloca ptr, align 8
  %16 = alloca ptr, align 8
  %17 = alloca ptr, align 8
  %18 = alloca ptr, align 8
  %19 = alloca ptr, align 8
  store ptr %0, ptr %5, align 8, !tbaa !34
  store ptr %1, ptr %6, align 8, !tbaa !35
  store ptr %2, ptr %7, align 8, !tbaa !32
  call void @llvm.lifetime.start.p0(i64 4, ptr %8) #5
  store i32 3, ptr %8, align 4, !tbaa !33
  call void @llvm.lifetime.start.p0(i64 4, ptr %9) #5
  call void @llvm.lifetime.start.p0(i64 8, ptr %10) #5
  %20 = call ptr @curl_url()
  store ptr %20, ptr %10, align 8, !tbaa !37
  call void @llvm.lifetime.start.p0(i64 8, ptr %11) #5
  store ptr null, ptr %11, align 8, !tbaa !32
  call void @llvm.lifetime.start.p0(i64 8, ptr %12) #5
  store ptr null, ptr %12, align 8, !tbaa !32
  %21 = load ptr, ptr %10, align 8, !tbaa !37
  %22 = icmp ne ptr %21, null
  br i1 %22, label %23, label %146

23:                                               ; preds = %3
  call void @llvm.lifetime.start.p0(i64 8, ptr %13) #5
  %24 = load ptr, ptr %10, align 8, !tbaa !37
  %25 = load ptr, ptr %6, align 8, !tbaa !35
  %26 = load ptr, ptr %25, align 8, !tbaa !32
  %27 = call i32 @curl_url_set(ptr noundef %24, i32 noundef 0, ptr noundef %26, i32 noundef 520)
  store i32 %27, ptr %9, align 4, !tbaa !33
  %28 = load i32, ptr %9, align 4, !tbaa !33
  %29 = icmp ne i32 %28, 0
  br i1 %29, label %30, label %33

30:                                               ; preds = %23
  %31 = load i32, ptr %9, align 4, !tbaa !33
  %32 = call i32 @urlerr_cvt(i32 noundef %31)
  store i32 %32, ptr %8, align 4, !tbaa !33
  store i32 2, ptr %14, align 4
  br label %143

33:                                               ; preds = %23
  %34 = load ptr, ptr %10, align 8, !tbaa !37
  %35 = call i32 @curl_url_get(ptr noundef %34, i32 noundef 7, ptr noundef %11, i32 noundef 0)
  store i32 %35, ptr %9, align 4, !tbaa !33
  %36 = load i32, ptr %9, align 4, !tbaa !33
  %37 = icmp ne i32 %36, 0
  br i1 %37, label %38, label %41

38:                                               ; preds = %33
  %39 = load i32, ptr %9, align 4, !tbaa !33
  %40 = call i32 @urlerr_cvt(i32 noundef %39)
  store i32 %40, ptr %8, align 4, !tbaa !33
  store i32 2, ptr %14, align 4
  br label %143

41:                                               ; preds = %33
  %42 = load ptr, ptr %10, align 8, !tbaa !37
  %43 = call i32 @curl_url_get(ptr noundef %42, i32 noundef 8, ptr noundef %12, i32 noundef 0)
  store i32 %43, ptr %9, align 4, !tbaa !33
  %44 = load i32, ptr %9, align 4, !tbaa !33
  %45 = icmp ne i32 %44, 0
  br i1 %45, label %53, label %46

46:                                               ; preds = %41
  %47 = load ptr, ptr %12, align 8, !tbaa !32
  %48 = icmp ne ptr %47, null
  br i1 %48, label %49, label %53

49:                                               ; preds = %46
  %50 = load ptr, ptr %12, align 8, !tbaa !32
  call void @curl_free(ptr noundef %50)
  %51 = load ptr, ptr %11, align 8, !tbaa !32
  call void @curl_free(ptr noundef %51)
  %52 = load ptr, ptr %10, align 8, !tbaa !37
  call void @curl_url_cleanup(ptr noundef %52)
  store i32 0, ptr %4, align 4
  store i32 1, ptr %14, align 4
  br label %143

53:                                               ; preds = %46, %41
  %54 = load ptr, ptr %11, align 8, !tbaa !32
  %55 = call ptr @strrchr(ptr noundef %54, i32 noundef 47) #6
  store ptr %55, ptr %13, align 8, !tbaa !32
  %56 = load ptr, ptr %13, align 8, !tbaa !32
  %57 = icmp ne ptr %56, null
  br i1 %57, label %58, label %63

58:                                               ; preds = %53
  %59 = load ptr, ptr %13, align 8, !tbaa !32
  %60 = getelementptr inbounds nuw i8, ptr %59, i32 1
  store ptr %60, ptr %13, align 8, !tbaa !32
  %61 = load i8, ptr %60, align 1, !tbaa !39
  %62 = icmp ne i8 %61, 0
  br i1 %62, label %141, label %63

63:                                               ; preds = %58, %53
  call void @llvm.lifetime.start.p0(i64 8, ptr %15) #5
  %64 = load ptr, ptr %7, align 8, !tbaa !32
  %65 = call ptr @strrchr(ptr noundef %64, i32 noundef 47) #6
  store ptr %65, ptr %15, align 8, !tbaa !32
  call void @llvm.lifetime.start.p0(i64 8, ptr %16) #5
  %66 = load ptr, ptr %15, align 8, !tbaa !32
  %67 = icmp ne ptr %66, null
  br i1 %67, label %68, label %70

68:                                               ; preds = %63
  %69 = load ptr, ptr %15, align 8, !tbaa !32
  br label %72

70:                                               ; preds = %63
  %71 = load ptr, ptr %7, align 8, !tbaa !32
  br label %72

72:                                               ; preds = %70, %68
  %73 = phi ptr [ %69, %68 ], [ %71, %70 ]
  %74 = call ptr @strrchr(ptr noundef %73, i32 noundef 92) #6
  store ptr %74, ptr %16, align 8, !tbaa !32
  call void @llvm.lifetime.start.p0(i64 8, ptr %17) #5
  %75 = load ptr, ptr %16, align 8, !tbaa !32
  %76 = icmp ne ptr %75, null
  br i1 %76, label %77, label %80

77:                                               ; preds = %72
  %78 = load ptr, ptr %16, align 8, !tbaa !32
  %79 = getelementptr inbounds i8, ptr %78, i64 1
  store ptr %79, ptr %15, align 8, !tbaa !32
  br label %89

80:                                               ; preds = %72
  %81 = load ptr, ptr %15, align 8, !tbaa !32
  %82 = icmp ne ptr %81, null
  br i1 %82, label %83, label %86

83:                                               ; preds = %80
  %84 = load ptr, ptr %15, align 8, !tbaa !32
  %85 = getelementptr inbounds nuw i8, ptr %84, i32 1
  store ptr %85, ptr %15, align 8, !tbaa !32
  br label %88

86:                                               ; preds = %80
  %87 = load ptr, ptr %7, align 8, !tbaa !32
  store ptr %87, ptr %15, align 8, !tbaa !32
  br label %88

88:                                               ; preds = %86, %83
  br label %89

89:                                               ; preds = %88, %77
  %90 = load ptr, ptr %5, align 8, !tbaa !34
  %91 = load ptr, ptr %15, align 8, !tbaa !32
  %92 = call ptr @curl_easy_escape(ptr noundef %90, ptr noundef %91, i32 noundef 0)
  store ptr %92, ptr %17, align 8, !tbaa !32
  %93 = load ptr, ptr %17, align 8, !tbaa !32
  %94 = icmp ne ptr %93, null
  br i1 %94, label %95, label %137

95:                                               ; preds = %89
  call void @llvm.lifetime.start.p0(i64 8, ptr %18) #5
  call void @llvm.lifetime.start.p0(i64 8, ptr %19) #5
  %96 = load ptr, ptr %13, align 8, !tbaa !32
  %97 = icmp ne ptr %96, null
  br i1 %97, label %98, label %102

98:                                               ; preds = %95
  %99 = load ptr, ptr %11, align 8, !tbaa !32
  %100 = load ptr, ptr %17, align 8, !tbaa !32
  %101 = call ptr (ptr, ...) @curl_maprintf(ptr noundef @.str.4, ptr noundef %99, ptr noundef %100)
  store ptr %101, ptr %18, align 8, !tbaa !32
  br label %106

102:                                              ; preds = %95
  %103 = load ptr, ptr %11, align 8, !tbaa !32
  %104 = load ptr, ptr %17, align 8, !tbaa !32
  %105 = call ptr (ptr, ...) @curl_maprintf(ptr noundef @.str.5, ptr noundef %103, ptr noundef %104)
  store ptr %105, ptr %18, align 8, !tbaa !32
  br label %106

106:                                              ; preds = %102, %98
  %107 = load ptr, ptr %17, align 8, !tbaa !32
  call void @curl_free(ptr noundef %107)
  %108 = load ptr, ptr %18, align 8, !tbaa !32
  %109 = icmp ne ptr %108, null
  br i1 %109, label %111, label %110

110:                                              ; preds = %106
  store i32 2, ptr %14, align 4
  br label %134

111:                                              ; preds = %106
  %112 = load ptr, ptr %10, align 8, !tbaa !37
  %113 = load ptr, ptr %18, align 8, !tbaa !32
  %114 = call i32 @curl_url_set(ptr noundef %112, i32 noundef 7, ptr noundef %113, i32 noundef 0)
  store i32 %114, ptr %9, align 4, !tbaa !33
  %115 = load ptr, ptr %18, align 8, !tbaa !32
  call void @free(ptr noundef %115) #5
  %116 = load i32, ptr %9, align 4, !tbaa !33
  %117 = icmp ne i32 %116, 0
  br i1 %117, label %118, label %121

118:                                              ; preds = %111
  %119 = load i32, ptr %9, align 4, !tbaa !33
  %120 = call i32 @urlerr_cvt(i32 noundef %119)
  store i32 %120, ptr %8, align 4, !tbaa !33
  store i32 2, ptr %14, align 4
  br label %134

121:                                              ; preds = %111
  %122 = load ptr, ptr %10, align 8, !tbaa !37
  %123 = call i32 @curl_url_get(ptr noundef %122, i32 noundef 0, ptr noundef %19, i32 noundef 4)
  store i32 %123, ptr %9, align 4, !tbaa !33
  %124 = load i32, ptr %9, align 4, !tbaa !33
  %125 = icmp ne i32 %124, 0
  br i1 %125, label %126, label %129

126:                                              ; preds = %121
  %127 = load i32, ptr %9, align 4, !tbaa !33
  %128 = call i32 @urlerr_cvt(i32 noundef %127)
  store i32 %128, ptr %8, align 4, !tbaa !33
  store i32 2, ptr %14, align 4
  br label %134

129:                                              ; preds = %121
  %130 = load ptr, ptr %6, align 8, !tbaa !35
  %131 = load ptr, ptr %130, align 8, !tbaa !32
  call void @free(ptr noundef %131) #5
  %132 = load ptr, ptr %19, align 8, !tbaa !32
  %133 = load ptr, ptr %6, align 8, !tbaa !35
  store ptr %132, ptr %133, align 8, !tbaa !32
  store i32 0, ptr %8, align 4, !tbaa !33
  store i32 0, ptr %14, align 4
  br label %134

134:                                              ; preds = %126, %118, %110, %129
  call void @llvm.lifetime.end.p0(i64 8, ptr %19) #5
  call void @llvm.lifetime.end.p0(i64 8, ptr %18) #5
  %135 = load i32, ptr %14, align 4
  switch i32 %135, label %138 [
    i32 0, label %136
  ]

136:                                              ; preds = %134
  br label %137

137:                                              ; preds = %136, %89
  store i32 0, ptr %14, align 4
  br label %138

138:                                              ; preds = %137, %134
  call void @llvm.lifetime.end.p0(i64 8, ptr %17) #5
  call void @llvm.lifetime.end.p0(i64 8, ptr %16) #5
  call void @llvm.lifetime.end.p0(i64 8, ptr %15) #5
  %139 = load i32, ptr %14, align 4
  switch i32 %139, label %143 [
    i32 0, label %140
  ]

140:                                              ; preds = %138
  br label %142

141:                                              ; preds = %58
  store i32 0, ptr %8, align 4, !tbaa !33
  br label %142

142:                                              ; preds = %141, %140
  store i32 0, ptr %14, align 4
  br label %143

143:                                              ; preds = %38, %30, %142, %138, %49
  call void @llvm.lifetime.end.p0(i64 8, ptr %13) #5
  %144 = load i32, ptr %14, align 4
  switch i32 %144, label %151 [
    i32 0, label %145
    i32 2, label %147
  ]

145:                                              ; preds = %143
  br label %146

146:                                              ; preds = %145, %3
  br label %147

147:                                              ; preds = %146, %143
  %148 = load ptr, ptr %10, align 8, !tbaa !37
  call void @curl_url_cleanup(ptr noundef %148)
  %149 = load ptr, ptr %11, align 8, !tbaa !32
  call void @curl_free(ptr noundef %149)
  %150 = load i32, ptr %8, align 4, !tbaa !33
  store i32 %150, ptr %4, align 4
  store i32 1, ptr %14, align 4
  br label %151

151:                                              ; preds = %147, %143
  call void @llvm.lifetime.end.p0(i64 8, ptr %12) #5
  call void @llvm.lifetime.end.p0(i64 8, ptr %11) #5
  call void @llvm.lifetime.end.p0(i64 8, ptr %10) #5
  call void @llvm.lifetime.end.p0(i64 4, ptr %9) #5
  call void @llvm.lifetime.end.p0(i64 4, ptr %8) #5
  %152 = load i32, ptr %4, align 4
  ret i32 %152
}