; Function Attrs: nounwind uwtable
define dso_local range(i32 0, 44) i32 @add_file_name_to_url(ptr noundef %0, ptr noundef captures(none) %1, ptr noundef %2) local_unnamed_addr #0 {
  %4 = alloca ptr, align 8
  %5 = alloca ptr, align 8
  %6 = alloca ptr, align 8
  %7 = tail call ptr @curl_url() #8
  call void @llvm.lifetime.start.p0(i64 8, ptr nonnull %4) #8
  store ptr null, ptr %4, align 8, !tbaa !30
  call void @llvm.lifetime.start.p0(i64 8, ptr nonnull %5) #8
  store ptr null, ptr %5, align 8, !tbaa !30
  %.not = icmp eq ptr %7, null
  br i1 %.not, label %urlerr_cvt.exit.thread, label %8

8:                                                ; preds = %3
  %9 = load ptr, ptr %1, align 8, !tbaa !30
  %10 = tail call i32 @curl_url_set(ptr noundef nonnull %7, i32 noundef 0, ptr noundef %9, i32 noundef 520) #8
  switch i32 %10, label %14 [
    i32 0, label %15
    i32 7, label %urlerr_cvt.exit.thread
    i32 5, label %11
    i32 30, label %12
    i32 1, label %13
  ]

11:                                               ; preds = %8
  br label %urlerr_cvt.exit.thread

12:                                               ; preds = %8
  br label %urlerr_cvt.exit.thread

13:                                               ; preds = %8
  br label %urlerr_cvt.exit.thread

14:                                               ; preds = %8
  br label %urlerr_cvt.exit.thread

15:                                               ; preds = %8
  %16 = call i32 @curl_url_get(ptr noundef nonnull %7, i32 noundef 7, ptr noundef nonnull %4, i32 noundef 0) #8
  switch i32 %16, label %20 [
    i32 0, label %21
    i32 7, label %urlerr_cvt.exit.thread
    i32 5, label %17
    i32 30, label %18
    i32 1, label %19
  ]

17:                                               ; preds = %15
  br label %urlerr_cvt.exit.thread

18:                                               ; preds = %15
  br label %urlerr_cvt.exit.thread

19:                                               ; preds = %15
  br label %urlerr_cvt.exit.thread

20:                                               ; preds = %15
  br label %urlerr_cvt.exit.thread

21:                                               ; preds = %15
  %22 = call i32 @curl_url_get(ptr noundef nonnull %7, i32 noundef 8, ptr noundef nonnull %5, i32 noundef 0) #8
  %23 = icmp eq i32 %22, 0
  %24 = load ptr, ptr %5, align 8
  %25 = icmp ne ptr %24, null
  %or.cond = select i1 %23, i1 %25, i1 false
  br i1 %or.cond, label %urlerr_cvt.exit.thread87, label %27

urlerr_cvt.exit.thread87:                         ; preds = %21
  call void @curl_free(ptr noundef nonnull %24) #8
  %26 = load ptr, ptr %4, align 8, !tbaa !30
  call void @curl_free(ptr noundef %26) #8
  call void @curl_url_cleanup(ptr noundef nonnull %7) #8
  br label %52

27:                                               ; preds = %21
  %28 = load ptr, ptr %4, align 8, !tbaa !30
  %29 = call ptr @strrchr(ptr noundef nonnull dereferenceable(1) %28, i32 noundef 47) #9
  %.not68 = icmp eq ptr %29, null
  br i1 %.not68, label %33, label %30

30:                                               ; preds = %27
  %31 = getelementptr inbounds nuw i8, ptr %29, i64 1
  %32 = load i8, ptr %31, align 1, !tbaa !31
  %.not69 = icmp eq i8 %32, 0
  br i1 %.not69, label %33, label %urlerr_cvt.exit.thread

33:                                               ; preds = %30, %27
  %34 = call ptr @strrchr(ptr noundef nonnull dereferenceable(1) %2, i32 noundef 47) #9
  %.not70 = icmp eq ptr %34, null
  %35 = select i1 %.not70, ptr %2, ptr %34
  %36 = call ptr @strrchr(ptr noundef nonnull dereferenceable(1) %35, i32 noundef 92) #9
  %.not71 = icmp eq ptr %36, null
  %37 = getelementptr inbounds nuw i8, ptr %36, i64 1
  %38 = getelementptr inbounds nuw i8, ptr %34, i64 1
  %spec.select = select i1 %.not70, ptr %2, ptr %38
  %.050 = select i1 %.not71, ptr %spec.select, ptr %37
  %39 = call ptr @curl_easy_escape(ptr noundef %0, ptr noundef nonnull %.050, i32 noundef 0) #8
  %.not72 = icmp eq ptr %39, null
  br i1 %.not72, label %urlerr_cvt.exit.thread, label %40

40:                                               ; preds = %33
  call void @llvm.lifetime.start.p0(i64 8, ptr nonnull %6) #8
  %41 = load ptr, ptr %4, align 8, !tbaa !30
  %.str.5..str.4 = select i1 %.not68, ptr @.str.5, ptr @.str.4
  %42 = call ptr (ptr, ...) @curl_maprintf(ptr noundef nonnull %.str.5..str.4, ptr noundef %41, ptr noundef nonnull %39) #8
  call void @curl_free(ptr noundef nonnull %39) #8
  %.not74 = icmp eq ptr %42, null
  br i1 %.not74, label %.thread, label %43

43:                                               ; preds = %40
  %44 = call i32 @curl_url_set(ptr noundef nonnull %7, i32 noundef 7, ptr noundef nonnull %42, i32 noundef 0) #8
  call void @free(ptr noundef nonnull %42) #8
  %.not75 = icmp eq i32 %44, 0
  br i1 %.not75, label %45, label %.thread.sink.split

45:                                               ; preds = %43
  %46 = call i32 @curl_url_get(ptr noundef nonnull %7, i32 noundef 0, ptr noundef nonnull %6, i32 noundef 4) #8
  %.not76 = icmp eq i32 %46, 0
  br i1 %.not76, label %48, label %.thread.sink.split

.thread.sink.split:                               ; preds = %45, %43
  %.sink = phi i32 [ %44, %43 ], [ %46, %45 ]
  %47 = call i32 @urlerr_cvt(i32 noundef %.sink)
  br label %.thread

.thread:                                          ; preds = %.thread.sink.split, %40
  %.2.ph = phi i32 [ 3, %40 ], [ %47, %.thread.sink.split ]
  call void @llvm.lifetime.end.p0(i64 8, ptr nonnull %6) #8
  br label %urlerr_cvt.exit.thread

48:                                               ; preds = %45
  %49 = load ptr, ptr %1, align 8, !tbaa !30
  call void @free(ptr noundef %49) #8
  %50 = load ptr, ptr %6, align 8, !tbaa !30
  store ptr %50, ptr %1, align 8, !tbaa !30
  call void @llvm.lifetime.end.p0(i64 8, ptr nonnull %6) #8
  br label %urlerr_cvt.exit.thread

urlerr_cvt.exit.thread:                           ; preds = %48, %.thread, %33, %15, %8, %20, %19, %18, %17, %14, %13, %12, %11, %30, %3
  %.5 = phi i32 [ 3, %3 ], [ 3, %20 ], [ 43, %19 ], [ 4, %18 ], [ 1, %17 ], [ 3, %14 ], [ 43, %13 ], [ 4, %12 ], [ 1, %11 ], [ 0, %30 ], [ 27, %8 ], [ 27, %15 ], [ 3, %33 ], [ 0, %48 ], [ %.2.ph, %.thread ]
  call void @curl_url_cleanup(ptr noundef %7) #8
  %51 = load ptr, ptr %4, align 8, !tbaa !30
  call void @curl_free(ptr noundef %51) #8
  br label %52

52:                                               ; preds = %urlerr_cvt.exit.thread87, %urlerr_cvt.exit.thread
  %.1 = phi i32 [ %.5, %urlerr_cvt.exit.thread ], [ 0, %urlerr_cvt.exit.thread87 ]
  call void @llvm.lifetime.end.p0(i64 8, ptr nonnull %5) #8
  call void @llvm.lifetime.end.p0(i64 8, ptr nonnull %4) #8
  ret i32 %.1
}